Certificate:
    Data:
        Version: 3 (0x2)
        Serial Number: 4096 (0x1000)
    Signature Algorithm: sha256WithRSAEncryption
        Issuer: C=CN, ST=HB, L=WH, O=HUST, OU=CSE, CN=wwy/emailAddress=U202012056@hust.edu.cn
        Validity
            Not Before: Jun 22 16:56:58 2023 GMT
            Not After : Jun 21 16:56:58 2024 GMT
        Subject: C=CN, ST=HB, O=HUST, OU=CSE, CN=wwy/emailAddress=U202012056@hust.edu.cn
        Subject Public Key Info:
            Public Key Algorithm: rsaEncryption
                Public-Key: (1024 bit)
                Modulus:
                    00:c3:0b:c4:fe:4f:f5:ba:d2:6c:29:fd:82:38:c5:
                    59:9b:48:d6:0d:1c:0e:2e:1a:02:ab:83:43:ce:64:
                    b4:8a:4a:c0:03:b1:4a:10:fc:bc:b6:30:73:33:9b:
                    5e:98:c1:14:86:33:6c:d7:e4:df:ba:15:e0:77:ac:
                    42:a4:62:3d:8a:fb:79:21:3a:3b:42:85:f5:5c:28:
                    f8:e8:08:2a:40:2e:09:8a:44:cb:df:97:fb:1e:2f:
                    ab:9d:42:b8:b5:cf:53:e7:81:ef:d7:ac:e7:3c:2e:
                    7d:f4:e1:8c:53:1c:75:1c:6c:0f:6b:0f:96:d5:9b:
                    5b:2e:f8:95:e5:dc:ca:b1:47
                Exponent: 65537 (0x10001)
        X509v3 extensions:
            X509v3 Basic Constraints: 
                CA:FALSE
            Netscape Comment: 
                OpenSSL Generated Certificate
            X509v3 Subject Key Identifier: 
                72:33:3B:EB:E2:09:0E:3E:A4:0D:55:F6:69:5A:0C:8B:AF:91:76:D0
            X509v3 Authority Key Identifier: 
                keyid:7F:85:52:1D:6C:E8:CA:81:ED:0C:4B:6F:F3:0A:E4:EC:F4:FC:C3:05

    Signature Algorithm: sha256WithRSAEncryption
         67:32:71:90:fb:a1:7e:8c:7a:66:2b:54:8f:8a:1d:c7:87:a5:
         f4:2f:5d:81:11:5b:7f:35:e7:8e:b2:f2:29:8d:b1:e0:51:0e:
         d2:93:d1:a1:28:fd:57:54:66:88:27:f9:f2:46:52:e4:a8:eb:
         b9:ce:1f:ba:3c:78:e5:4c:08:65:d6:50:83:23:06:90:dd:27:
         59:3a:eb:d6:98:0f:37:08:39:6b:c2:d5:f8:57:bb:18:1a:50:
         89:ad:b3:c4:fb:30:bd:bc:d2:a5:99:d1:56:48:fb:8f:d1:72:
         a9:1d:c3:3a:05:9f:a8:c3:79:19:be:d5:a7:bf:15:9d:65:5f:
         08:fe:87:c6:2f:f0:58:7d:5d:e4:d3:a7:29:12:df:d6:d0:c2:
         65:c8:00:54:60:56:11:0e:1d:a6:70:95:c5:29:6a:75:a4:23:
         d1:74:c3:1d:8c:d4:4c:29:67:e3:c3:9a:9f:e1:6c:81:bc:34:
         46:53:e7:e7:89:e9:31:07:2b:05:23:3c:be:0d:7d:f0:b9:2a:
         22:60:b5:95:54:0b:6b:65:6d:5d:b3:61:33:ff:92:31:f9:a8:
         61:6a:15:87:4f:60:a5:79:f1:f2:6f:12:67:01:6c:80:3c:59:
         a3:ea:98:86:72:d7:47:35:73:81:90:b4:44:ff:8e:d0:93:52:
         23:5f:e9:a9
-----BEGIN CERTIFICATE-----
MIIDWDCCAkCgAwIBAgICEAAwDQYJKoZIhvcNAQELBQAweTELMAkGA1UEBhMCQ04x
CzAJBgNVBAgMAkhCMQswCQYDVQQHDAJXSDENMAsGA1UECgwESFVTVDEMMAoGA1UE
CwwDQ1NFMQwwCgYDVQQDDAN3d3kxJTAjBgkqhkiG9w0BCQEWFlUyMDIwMTIwNTZA
aHVzdC5lZHUuY24wHhcNMjMwNjIyMTY1NjU4WhcNMjQwNjIxMTY1NjU4WjBsMQsw
CQYDVQQGEwJDTjELMAkGA1UECAwCSEIxDTALBgNVBAoMBEhVU1QxDDAKBgNVBAsM
A0NTRTEMMAoGA1UEAwwDd3d5MSUwIwYJKoZIhvcNAQkBFhZVMjAyMDEyMDU2QGh1
c3QuZWR1LmNuMIGfMA0GCSqGSIb3DQEBAQUAA4GNADCBiQKBgQDDC8T+T/W60mwp
/YI4xVmbSNYNHA4uGgKrg0POZLSKSsADsUoQ/Ly2MHMzm16YwRSGM2zX5N+6FeB3
rEKkYj2K+3khOjtChfVcKPjoCCpALgmKRMvfl/seL6udQri1z1Pnge/XrOc8Ln30
4YxTHHUcbA9rD5bVm1su+JXl3MqxRwIDAQABo3sweTAJBgNVHRMEAjAAMCwGCWCG
SAGG+EIBDQQfFh1PcGVuU1NMIEdlbmVyYXRlZCBDZXJ0aWZpY2F0ZTAdBgNVHQ4E
FgQUcjM76+IJDj6kDVX2aVoMi6+RdtAwHwYDVR0jBBgwFoAUf4VSHWzoyoHtDEtv
8wrk7PT8wwUwDQYJKoZIhvcNAQELBQADggEBAGcycZD7oX6MemYrVI+KHceHpfQv
XYERW381546y8imNseBRDtKT0aEo/VdUZogn+fJGUuSo67nOH7o8eOVMCGXWUIMj
BpDdJ1k669aYDzcIOWvC1fhXuxgaUImts8T7ML280qWZ0VZI+4/RcqkdwzoFn6jD
eRm+1ae/FZ1lXwj+h8Yv8Fh9XeTTpykS39bQwmXIAFRgVhEOHaZwlcUpanWkI9F0
wx2M1EwpZ+PDmp/hbIG8NEZT5+eJ6TEHKwUjPL4NffC5KiJgtZVUC2tlbV2zYTP/
kjH5qGFqFYdPYKV58fJvEmcBbIA8WaPqmIZy10c1c4GQtET/jtCTUiNf6ak=
-----END CERTIFICATE-----
